; ModuleID = '16/270.c'
source_filename = "16/270.c"
target datalayout = "e-m:e-p270:32:32-p271:32:32-p272:64:64-i64:64-f80:128-n8:16:32:64-S128"
target triple = "x86_64-pc-linux-gnu"

@.str = private unnamed_addr constant [3 x i8] c"%d\00", align 1
@.str.1 = private unnamed_addr constant [4 x i8] c"%d\0A\00", align 1
@.str.2 = private unnamed_addr constant [6 x i8] c"%02d\0A\00", align 1
@.str.3 = private unnamed_addr constant [6 x i8] c"%03d\0A\00", align 1
@.str.4 = private unnamed_addr constant [6 x i8] c"%04d\0A\00", align 1

; Function Attrs: noinline nounwind uwtable
define dso_local i32 @main() #0 {
  %1 = alloca i32, align 4
  %2 = alloca i32, align 4
  %3 = alloca i32, align 4
  %4 = alloca i32, align 4
  %5 = alloca i32, align 4
  %6 = alloca i32, align 4
  %7 = alloca i32, align 4
  store i32 0, i32* %1, align 4
  %8 = call i32 (i8*, ...) @__isoc99_scanf(i8* getelementptr inbounds ([3 x i8], [3 x i8]* @.str, i64 0, i64 0), i32* %2)
  %9 = load i32, i32* %2, align 4
  %10 = srem i32 %9, 10
  store i32 %10, i32* %3, align 4
  %11 = load i32, i32* %2, align 4
  %12 = srem i32 %11, 100
  %13 = load i32, i32* %3, align 4
  %14 = sub nsw i32 %12, %13
  %15 = sdiv i32 %14, 10
  store i32 %15, i32* %4, align 4
  %16 = load i32, i32* %2, align 4
  %17 = srem i32 %16, 1000
  %18 = load i32, i32* %4, align 4
  %19 = mul nsw i32 %18, 10
  %20 = sub nsw i32 %17, %19
  %21 = load i32, i32* %3, align 4
  %22 = sub nsw i32 %20, %21
  %23 = sdiv i32 %22, 100
  store i32 %23, i32* %5, align 4
  %24 = load i32, i32* %2, align 4
  %25 = load i32, i32* %5, align 4
  %26 = mul nsw i32 %25, 100
  %27 = sub nsw i32 %24, %26
  %28 = load i32, i32* %4, align 4
  %29 = mul nsw i32 %28, 10
  %30 = sub nsw i32 %27, %29
  %31 = load i32, i32* %3, align 4
  %32 = sub nsw i32 %30, %31
  %33 = sdiv i32 %32, 1000
  store i32 %33, i32* %6, align 4
  %34 = load i32, i32* %2, align 4
  %35 = icmp slt i32 %34, 10
  br i1 %35, label %36, label %40

36:                                               ; preds = %0
  %37 = load i32, i32* %3, align 4
  store i32 %37, i32* %7, align 4
  %38 = load i32, i32* %7, align 4
  %39 = call i32 (i8*, ...) @printf(i8* getelementptr inbounds ([4 x i8], [4 x i8]* @.str.1, i64 0, i64 0), i32 %38)
  br label %82

40:                                               ; preds = %0
  %41 = load i32, i32* %2, align 4
  %42 = icmp slt i32 %41, 100
  br i1 %42, label %43, label %50

43:                                               ; preds = %40
  %44 = load i32, i32* %3, align 4
  %45 = mul nsw i32 %44, 10
  %46 = load i32, i32* %4, align 4
  %47 = add nsw i32 %45, %46
  store i32 %47, i32* %7, align 4
  %48 = load i32, i32* %7, align 4
  %49 = call i32 (i8*, ...) @printf(i8* getelementptr inbounds ([6 x i8], [6 x i8]* @.str.2, i64 0, i64 0), i32 %48)
  br label %81

50:                                               ; preds = %40
  %51 = load i32, i32* %2, align 4
  %52 = icmp slt i32 %51, 1000
  br i1 %52, label %53, label %63

53:                                               ; preds = %50
  %54 = load i32, i32* %3, align 4
  %55 = mul nsw i32 %54, 100
  %56 = load i32, i32* %4, align 4
  %57 = mul nsw i32 %56, 10
  %58 = add nsw i32 %55, %57
  %59 = load i32, i32* %5, align 4
  %60 = add nsw i32 %58, %59
  store i32 %60, i32* %7, align 4
  %61 = load i32, i32* %7, align 4
  %62 = call i32 (i8*, ...) @printf(i8* getelementptr inbounds ([6 x i8], [6 x i8]* @.str.3, i64 0, i64 0), i32 %61)
  br label %80

63:                                               ; preds = %50
  %64 = load i32, i32* %2, align 4
  %65 = icmp slt i32 %64, 10000
  br i1 %65, label %66, label %79

66:                                               ; preds = %63
  %67 = load i32, i32* %3, align 4
  %68 = mul nsw i32 %67, 1000
  %69 = load i32, i32* %4, align 4
  %70 = mul nsw i32 %69, 100
  %71 = add nsw i32 %68, %70
  %72 = load i32, i32* %5, align 4
  %73 = mul nsw i32 %72, 10
  %74 = add nsw i32 %71, %73
  %75 = load i32, i32* %6, align 4
  %76 = add nsw i32 %74, %75
  store i32 %76, i32* %7, align 4
  %77 = load i32, i32* %7, align 4
  %78 = call i32 (i8*, ...) @printf(i8* getelementptr inbounds ([6 x i8], [6 x i8]* @.str.4, i64 0, i64 0), i32 %77)
  br label %79

79:                                               ; preds = %66, %63
  br label %80

80:                                               ; preds = %79, %53
  br label %81

81:                                               ; preds = %80, %43
  br label %82

82:                                               ; preds = %81, %36
  ret i32 0
}

declare dso_local i32 @__isoc99_scanf(i8*, ...) #1

declare dso_local i32 @printf(i8*, ...) #1


!llvm.module.flags = !{!0}
!llvm.ident = !{!1}

!0 = !{i32 1, !"wchar_size", i32 4}
!1 = !{!"clang version 10.0.0-4ubuntu1 "}
