; ModuleID = 'source-C-CXX/15/270.c'
source_filename = "source-C-CXX/15/270.c"
target datalayout = "e-m:e-p270:32:32-p271:32:32-p272:64:64-i64:64-f80:128-n8:16:32:64-S128"
target triple = "x86_64-pc-linux-gnu"

@.str = private unnamed_addr constant [3 x i8] c"%d\00", align 1
@.str.1 = private unnamed_addr constant [4 x i8] c"%d\0A\00", align 1
@.str.2 = private unnamed_addr constant [6 x i8] c"%02d\0A\00", align 1
@.str.3 = private unnamed_addr constant [6 x i8] c"%03d\0A\00", align 1
@.str.4 = private unnamed_addr constant [6 x i8] c"%04d\0A\00", align 1

; Function Attrs: nofree nounwind sspstrong uwtable
define dso_local i32 @main() local_unnamed_addr #0 {
  %1 = alloca i32, align 4
  %2 = bitcast i32* %1 to i8*
  call void @llvm.lifetime.start.p0i8(i64 4, i8* nonnull %2) #3
  %3 = call i32 (i8*, ...) @__isoc99_scanf(i8* getelementptr inbounds ([3 x i8], [3 x i8]* @.str, i64 0, i64 0), i32* nonnull %1)
  %4 = load i32, i32* %1, align 4, !tbaa !5
  %5 = srem i32 %4, 10
  %6 = srem i32 %4, 100
  %7 = sub nsw i32 %6, %5
  %8 = trunc i32 %7 to i8
  %9 = sdiv i8 %8, 10
  %10 = sext i8 %9 to i32
  %11 = srem i32 %4, 1000
  %12 = mul nsw i32 %10, 10
  %13 = add nsw i32 %12, %5
  %14 = sub nsw i32 %11, %13
  %15 = trunc i32 %14 to i16
  %16 = sdiv i16 %15, 100
  %17 = sext i16 %16 to i32
  %18 = mul nsw i32 %17, -100
  %19 = sub i32 %4, %13
  %20 = add i32 %19, %18
  %21 = sdiv i32 %20, 1000
  %22 = icmp slt i32 %4, 10
  br i1 %22, label %23, label %25

23:                                               ; preds = %0
  %24 = call i32 (i8*, ...) @printf(i8* nonnull dereferenceable(1) getelementptr inbounds ([4 x i8], [4 x i8]* @.str.1, i64 0, i64 0), i32 %5)
  br label %48

25:                                               ; preds = %0
  %26 = icmp slt i32 %4, 100
  br i1 %26, label %27, label %31

27:                                               ; preds = %25
  %28 = mul nsw i32 %5, 10
  %29 = add nsw i32 %28, %10
  %30 = call i32 (i8*, ...) @printf(i8* nonnull dereferenceable(1) getelementptr inbounds ([6 x i8], [6 x i8]* @.str.2, i64 0, i64 0), i32 %29)
  br label %48

31:                                               ; preds = %25
  %32 = icmp slt i32 %4, 1000
  br i1 %32, label %33, label %38

33:                                               ; preds = %31
  %34 = mul nsw i32 %5, 100
  %35 = add nsw i32 %12, %34
  %36 = add nsw i32 %35, %17
  %37 = call i32 (i8*, ...) @printf(i8* nonnull dereferenceable(1) getelementptr inbounds ([6 x i8], [6 x i8]* @.str.3, i64 0, i64 0), i32 %36)
  br label %48

38:                                               ; preds = %31
  %39 = icmp slt i32 %4, 10000
  br i1 %39, label %40, label %48

40:                                               ; preds = %38
  %41 = mul nsw i32 %5, 1000
  %42 = mul nsw i32 %10, 100
  %43 = add nsw i32 %42, %41
  %44 = mul nsw i32 %17, 10
  %45 = add nsw i32 %43, %44
  %46 = add nsw i32 %45, %21
  %47 = call i32 (i8*, ...) @printf(i8* nonnull dereferenceable(1) getelementptr inbounds ([6 x i8], [6 x i8]* @.str.4, i64 0, i64 0), i32 %46)
  br label %48

48:                                               ; preds = %27, %38, %40, %33, %23
  call void @llvm.lifetime.end.p0i8(i64 4, i8* nonnull %2) #3
  ret i32 0
}

; Function Attrs: argmemonly mustprogress nofree nosync nounwind willreturn
declare void @llvm.lifetime.start.p0i8(i64 immarg, i8* nocapture) #1

; Function Attrs: nofree nounwind
declare noundef i32 @__isoc99_scanf(i8* nocapture noundef readonly, ...) local_unnamed_addr #2

; Function Attrs: nofree nounwind
declare noundef i32 @printf(i8* nocapture noundef readonly, ...) local_unnamed_addr #2

; Function Attrs: argmemonly mustprogress nofree nosync nounwind willreturn
declare void @llvm.lifetime.end.p0i8(i64 immarg, i8* nocapture) #1


!llvm.module.flags = !{!0, !1, !2, !3}
!llvm.ident = !{!4}

!0 = !{i32 1, !"wchar_size", i32 4}
!1 = !{i32 7, !"PIC Level", i32 2}
!2 = !{i32 7, !"PIE Level", i32 2}
!3 = !{i32 7, !"uwtable", i32 1}
!4 = !{!"clang version 13.0.0"}
!5 = !{!6, !6, i64 0}
!6 = !{!"int", !7, i64 0}
!7 = !{!"omnipotent char", !8, i64 0}
!8 = !{!"Simple C/C++ TBAA"}
